; Function Attrs: mustprogress nofree norecurse nosync nounwind willreturn memory(read, inaccessiblemem: none) uwtable
define noundef i32 @_ZNK6icu_759UVector327indexOfEii(ptr nocapture noundef nonnull readonly align 8 dereferenceable(32) %this, i32 noundef %key, i32 noundef %startIndex) local_unnamed_addr #7 align 2 {
entry:
  %count = getelementptr inbounds i8, ptr %this, i64 8
  %0 = load i32, ptr %count, align 8
  %cmp4 = icmp sgt i32 %0, %startIndex
  br i1 %cmp4, label %for.body.lr.ph, label %return

for.body.lr.ph:                                   ; preds = %entry
  %elements = getelementptr inbounds i8, ptr %this, i64 24
  %1 = load ptr, ptr %elements, align 8
  %2 = sext i32 %startIndex to i64
  br label %for.body

for.body:                                         ; preds = %for.body.lr.ph, %for.inc
  %indvars.iv = phi i64 [ %2, %for.body.lr.ph ], [ %indvars.iv.next, %for.inc ]
  %arrayidx = getelementptr inbounds i32, ptr %1, i64 %indvars.iv
  %3 = load i32, ptr %arrayidx, align 4
  %cmp2 = icmp eq i32 %3, %key
  br i1 %cmp2, label %return.loopexit.split.loop.exit8, label %for.inc

for.inc:                                          ; preds = %for.body
  %indvars.iv.next = add nsw i64 %indvars.iv, 1
  %lftr.wideiv = trunc i64 %indvars.iv.next to i32
  %exitcond.not = icmp eq i32 %0, %lftr.wideiv
  br i1 %exitcond.not, label %return, label %for.body, !llvm.loop !10

return.loopexit.split.loop.exit8:                 ; preds = %for.body
  %4 = trunc i64 %indvars.iv to i32
  br label %return

return:                                           ; preds = %for.inc, %return.loopexit.split.loop.exit8, %entry
  %retval.0 = phi i32 [ -1, %entry ], [ %4, %return.loopexit.split.loop.exit8 ], [ -1, %for.inc ]
  ret i32 %retval.0
}